target datalayout = "e-m:e-p270:32:32-p271:32:32-p272:64:64-i64:64-i128:128-f80:128-n8:16:32:64-S128"
target triple = "x86_64-pc-linux-gnu"

%struct.sp_int = type { i16, i16, [129 x i64] }

; Function Attrs: nounwind uwtable
define internal void @_sp_copy(ptr noundef %0, ptr noundef %1) #0 {
  %3 = alloca ptr, align 8
  %4 = alloca ptr, align 8
  store ptr %0, ptr %3, align 8, !tbaa !3
  store ptr %1, ptr %4, align 8, !tbaa !3
  %5 = load ptr, ptr %3, align 8, !tbaa !3
  %6 = getelementptr inbounds nuw %struct.sp_int, ptr %5, i32 0, i32 0
  %7 = load i16, ptr %6, align 8, !tbaa !15
  %8 = zext i16 %7 to i32
  %9 = icmp eq i32 %8, 0
  br i1 %9, label %10, label %14

10:                                               ; preds = %2
  %11 = load ptr, ptr %4, align 8, !tbaa !3
  %12 = getelementptr inbounds nuw %struct.sp_int, ptr %11, i32 0, i32 2
  %13 = getelementptr inbounds [129 x i64], ptr %12, i64 0, i64 0
  store i64 0, ptr %13, align 8, !tbaa !16
  br label %27

14:                                               ; preds = %2
  %15 = load ptr, ptr %4, align 8, !tbaa !3
  %16 = getelementptr inbounds nuw %struct.sp_int, ptr %15, i32 0, i32 2
  %17 = getelementptr inbounds [129 x i64], ptr %16, i64 0, i64 0
  %18 = load ptr, ptr %3, align 8, !tbaa !3
  %19 = getelementptr inbounds nuw %struct.sp_int, ptr %18, i32 0, i32 2
  %20 = getelementptr inbounds [129 x i64], ptr %19, i64 0, i64 0
  %21 = load ptr, ptr %3, align 8, !tbaa !3
  %22 = getelementptr inbounds nuw %struct.sp_int, ptr %21, i32 0, i32 0
  %23 = load i16, ptr %22, align 8, !tbaa !15
  %24 = zext i16 %23 to i32
  %25 = mul i32 %24, 8
  %26 = zext i32 %25 to i64
  call void @llvm.memcpy.p0.p0.i64(ptr align 8 %17, ptr align 8 %20, i64 %26, i1 false)
  br label %27

27:                                               ; preds = %14, %10
  %28 = load ptr, ptr %3, align 8, !tbaa !3
  %29 = getelementptr inbounds nuw %struct.sp_int, ptr %28, i32 0, i32 0
  %30 = load i16, ptr %29, align 8, !tbaa !15
  %31 = load ptr, ptr %4, align 8, !tbaa !3
  %32 = getelementptr inbounds nuw %struct.sp_int, ptr %31, i32 0, i32 0
  store i16 %30, ptr %32, align 8, !tbaa !15
  ret void
}

; Function Attrs: nounwind uwtable
define i32 @sp_copy(ptr noundef %0, ptr noundef %1) #0 {
  %3 = alloca ptr, align 8
  %4 = alloca ptr, align 8
  %5 = alloca i32, align 4
  store ptr %0, ptr %3, align 8, !tbaa !3
  store ptr %1, ptr %4, align 8, !tbaa !3
  call void @llvm.lifetime.start.p0(i64 4, ptr %5) #8
  store i32 0, ptr %5, align 4, !tbaa !8
  %6 = load ptr, ptr %3, align 8, !tbaa !3
  %7 = icmp eq ptr %6, null
  br i1 %7, label %11, label %8

8:                                                ; preds = %2
  %9 = load ptr, ptr %4, align 8, !tbaa !3
  %10 = icmp eq ptr %9, null
  br i1 %10, label %11, label %12

11:                                               ; preds = %8, %2
  store i32 -98, ptr %5, align 4, !tbaa !8
  br label %12

12:                                               ; preds = %11, %8
  %13 = load ptr, ptr %3, align 8, !tbaa !3
  %14 = load ptr, ptr %4, align 8, !tbaa !3
  %15 = icmp ne ptr %13, %14
  br i1 %15, label %16, label %37

16:                                               ; preds = %12
  %17 = load i32, ptr %5, align 4, !tbaa !8
  %18 = icmp eq i32 %17, 0
  br i1 %18, label %19, label %30

19:                                               ; preds = %16
  %20 = load ptr, ptr %3, align 8, !tbaa !3
  %21 = getelementptr inbounds nuw %struct.sp_int, ptr %20, i32 0, i32 0
  %22 = load i16, ptr %21, align 8, !tbaa !15
  %23 = zext i16 %22 to i32
  %24 = load ptr, ptr %4, align 8, !tbaa !3
  %25 = getelementptr inbounds nuw %struct.sp_int, ptr %24, i32 0, i32 1
  %26 = load i16, ptr %25, align 2, !tbaa !12
  %27 = zext i16 %26 to i32
  %28 = icmp sgt i32 %23, %27
  br i1 %28, label %29, label %30

29:                                               ; preds = %19
  store i32 -98, ptr %5, align 4, !tbaa !8
  br label %30

30:                                               ; preds = %29, %19, %16
  %31 = load i32, ptr %5, align 4, !tbaa !8
  %32 = icmp eq i32 %31, 0
  br i1 %32, label %33, label %36

33:                                               ; preds = %30
  %34 = load ptr, ptr %3, align 8, !tbaa !3
  %35 = load ptr, ptr %4, align 8, !tbaa !3
  call void @_sp_copy(ptr noundef %34, ptr noundef %35)
  br label %36

36:                                               ; preds = %33, %30
  br label %37

37:                                               ; preds = %36, %12
  %38 = load i32, ptr %5, align 4, !tbaa !8
  call void @llvm.lifetime.end.p0(i64 4, ptr %5) #8
  ret i32 %38
}