; Function Attrs: mustprogress nofree norecurse nosync nounwind willreturn memory(argmem: readwrite) uwtable
define range(i32 -98, 1) i32 @sp_copy(ptr noundef readonly captures(address) %0, ptr noundef captures(address) %1) local_unnamed_addr #3 {
  %3 = icmp eq ptr %0, null
  %4 = icmp eq ptr %1, null
  %or.cond.not.not20 = or i1 %3, %4
  %spec.store.select = select i1 %or.cond.not.not20, i32 -98, i32 0
  %.not = icmp eq ptr %0, %1
  %brmerge = or i1 %.not, %or.cond.not.not20
  %spec.store.select.mux = select i1 %.not, i32 %spec.store.select, i32 -98
  br i1 %brmerge, label %.thread16, label %5

5:                                                ; preds = %2
  %6 = load i16, ptr %0, align 8, !tbaa !12
  %7 = getelementptr inbounds nuw i8, ptr %1, i64 2
  %8 = load i16, ptr %7, align 2, !tbaa !10
  %9 = icmp ugt i16 %6, %8
  br i1 %9, label %.thread16, label %.thread

.thread:                                          ; preds = %5
  %10 = icmp eq i16 %6, 0
  br i1 %10, label %11, label %13

11:                                               ; preds = %.thread
  %12 = getelementptr inbounds nuw i8, ptr %1, i64 8
  store i64 0, ptr %12, align 8, !tbaa !8
  br label %_sp_copy.exit

13:                                               ; preds = %.thread
  %14 = zext i16 %6 to i64
  %15 = getelementptr inbounds nuw i8, ptr %1, i64 8
  %16 = getelementptr inbounds nuw i8, ptr %0, i64 8
  %17 = shl nuw nsw i64 %14, 3
  tail call void @llvm.memcpy.p0.p0.i64(ptr nonnull align 8 %15, ptr nonnull readonly align 8 %16, i64 %17, i1 false)
  %.pre.i = load i16, ptr %0, align 8, !tbaa !12
  br label %_sp_copy.exit

_sp_copy.exit:                                    ; preds = %11, %13
  %18 = phi i16 [ %.pre.i, %13 ], [ 0, %11 ]
  store i16 %18, ptr %1, align 8, !tbaa !12
  br label %.thread16

.thread16:                                        ; preds = %2, %5, %_sp_copy.exit
  %.0 = phi i32 [ 0, %_sp_copy.exit ], [ %spec.store.select.mux, %2 ], [ -98, %5 ]
  ret i32 %.0
}